target datalayout = "e-m:e-p270:32:32-p271:32:32-p272:64:64-i64:64-i128:128-f80:128-n8:16:32:64-S128"
target triple = "x86_64-pc-linux-gnu"

%struct.mbedtls_mpi = type { ptr, i16, i16 }
%struct.mbedtls_rsa_context = type { i32, i64, %struct.mbedtls_mpi, %struct.mbedtls_mpi, %struct.mbedtls_mpi, %struct.mbedtls_mpi, %struct.mbedtls_mpi, %struct.mbedtls_mpi, %struct.mbedtls_mpi, %struct.mbedtls_mpi, %struct.mbedtls_mpi, %struct.mbedtls_mpi, %struct.mbedtls_mpi, %struct.mbedtls_mpi, %struct.mbedtls_mpi, i32, i32 }

@.str = private unnamed_addr constant [117 x i8] c"generated/home/dtcxzyw/WorkSpace/Projects/compilers/llvm-opt-benchmark/bench/lief/bench_build/mbed_src/library/rsa.c\00", align 1

; Function Attrs: nounwind uwtable
define internal i32 @compute_hash(i32 noundef %0, ptr noundef %1, i64 noundef %2, ptr noundef %3) #0 {
  %5 = alloca i32, align 4
  %6 = alloca i32, align 4
  %7 = alloca ptr, align 8
  %8 = alloca i64, align 8
  %9 = alloca ptr, align 8
  %10 = alloca ptr, align 8
  %11 = alloca i32, align 4
  store i32 %0, ptr %6, align 4, !tbaa !12
  store ptr %1, ptr %7, align 8, !tbaa !8
  store i64 %2, ptr %8, align 8, !tbaa !10
  store ptr %3, ptr %9, align 8, !tbaa !8
  call void @llvm.lifetime.start.p0(i64 8, ptr %10) #9
  %12 = load i32, ptr %6, align 4, !tbaa !12
  %13 = call ptr @mbedtls_md_info_from_type(i32 noundef %12)
  store ptr %13, ptr %10, align 8, !tbaa !34
  %14 = load ptr, ptr %10, align 8, !tbaa !34
  %15 = icmp eq ptr %14, null
  br i1 %15, label %16, label %17

16:                                               ; preds = %4
  store i32 -16512, ptr %5, align 4
  store i32 1, ptr %11, align 4
  br label %23

17:                                               ; preds = %4
  %18 = load ptr, ptr %10, align 8, !tbaa !34
  %19 = load ptr, ptr %7, align 8, !tbaa !8
  %20 = load i64, ptr %8, align 8, !tbaa !10
  %21 = load ptr, ptr %9, align 8, !tbaa !8
  %22 = call i32 @mbedtls_md(ptr noundef %18, ptr noundef %19, i64 noundef %20, ptr noundef %21)
  store i32 %22, ptr %5, align 4
  store i32 1, ptr %11, align 4
  br label %23

23:                                               ; preds = %17, %16
  call void @llvm.lifetime.end.p0(i64 8, ptr %10) #9
  %24 = load i32, ptr %5, align 4
  ret i32 %24
}

; Function Attrs: inlinehint nounwind uwtable
define internal i32 @mbedtls_error_add(i32 noundef %0, i32 noundef %1, ptr noundef %2, i32 noundef %3) #3 {
  %5 = alloca i32, align 4
  %6 = alloca i32, align 4
  %7 = alloca ptr, align 8
  %8 = alloca i32, align 4
  store i32 %0, ptr %5, align 4, !tbaa !12
  store i32 %1, ptr %6, align 4, !tbaa !12
  store ptr %2, ptr %7, align 8, !tbaa !8
  store i32 %3, ptr %8, align 4, !tbaa !12
  %9 = load i32, ptr %5, align 4, !tbaa !12
  %10 = load i32, ptr %6, align 4, !tbaa !12
  %11 = add nsw i32 %9, %10
  ret i32 %11
}

; Function Attrs: inlinehint nounwind uwtable
define internal zeroext i8 @mbedtls_md_get_size_from_type(i32 noundef %0) #3 {
  %2 = alloca i32, align 4
  store i32 %0, ptr %2, align 4, !tbaa !12
  %3 = load i32, ptr %2, align 4, !tbaa !12
  %4 = call ptr @mbedtls_md_info_from_type(i32 noundef %3)
  %5 = call zeroext i8 @mbedtls_md_get_size(ptr noundef %4)
  ret i8 %5
}

; Function Attrs: nounwind uwtable
define hidden i32 @mbedtls_rsa_rsaes_oaep_encrypt(ptr noundef %0, ptr noundef %1, ptr noundef %2, ptr noundef %3, i64 noundef %4, i64 noundef %5, ptr noundef %6, ptr noundef %7) #0 {
  %9 = alloca i32, align 4
  %10 = alloca ptr, align 8
  %11 = alloca ptr, align 8
  %12 = alloca ptr, align 8
  %13 = alloca ptr, align 8
  %14 = alloca i64, align 8
  %15 = alloca i64, align 8
  %16 = alloca ptr, align 8
  %17 = alloca ptr, align 8
  %18 = alloca i64, align 8
  %19 = alloca i32, align 4
  %20 = alloca ptr, align 8
  %21 = alloca i32, align 4
  %22 = alloca i32, align 4
  store ptr %0, ptr %10, align 8, !tbaa !3
  store ptr %1, ptr %11, align 8, !tbaa !26
  store ptr %2, ptr %12, align 8, !tbaa !26
  store ptr %3, ptr %13, align 8, !tbaa !8
  store i64 %4, ptr %14, align 8, !tbaa !10
  store i64 %5, ptr %15, align 8, !tbaa !10
  store ptr %6, ptr %16, align 8, !tbaa !8
  store ptr %7, ptr %17, align 8, !tbaa !8
  call void @llvm.lifetime.start.p0(i64 8, ptr %18) #9
  call void @llvm.lifetime.start.p0(i64 4, ptr %19) #9
  store i32 -110, ptr %19, align 4, !tbaa !12
  call void @llvm.lifetime.start.p0(i64 8, ptr %20) #9
  %23 = load ptr, ptr %17, align 8, !tbaa !8
  store ptr %23, ptr %20, align 8, !tbaa !8
  call void @llvm.lifetime.start.p0(i64 4, ptr %21) #9
  %24 = load ptr, ptr %11, align 8, !tbaa !26
  %25 = icmp eq ptr %24, null
  br i1 %25, label %26, label %27

26:                                               ; preds = %8
  store i32 -16512, ptr %9, align 4
  store i32 1, ptr %22, align 4
  br label %161

27:                                               ; preds = %8
  %28 = load ptr, ptr %10, align 8, !tbaa !3
  %29 = getelementptr inbounds nuw %struct.mbedtls_rsa_context, ptr %28, i32 0, i32 16
  %30 = load i32, ptr %29, align 4, !tbaa !25
  %31 = call zeroext i8 @mbedtls_md_get_size_from_type(i32 noundef %30)
  %32 = zext i8 %31 to i32
  store i32 %32, ptr %21, align 4, !tbaa !12
  %33 = load i32, ptr %21, align 4, !tbaa !12
  %34 = icmp eq i32 %33, 0
  br i1 %34, label %35, label %36

35:                                               ; preds = %27
  store i32 -16512, ptr %9, align 4
  store i32 1, ptr %22, align 4
  br label %161

36:                                               ; preds = %27
  %37 = load ptr, ptr %10, align 8, !tbaa !3
  %38 = getelementptr inbounds nuw %struct.mbedtls_rsa_context, ptr %37, i32 0, i32 1
  %39 = load i64, ptr %38, align 8, !tbaa !19
  store i64 %39, ptr %18, align 8, !tbaa !10
  %40 = load i64, ptr %15, align 8, !tbaa !10
  %41 = load i32, ptr %21, align 4, !tbaa !12
  %42 = mul i32 2, %41
  %43 = zext i32 %42 to i64
  %44 = add i64 %40, %43
  %45 = add i64 %44, 2
  %46 = load i64, ptr %15, align 8, !tbaa !10
  %47 = icmp ult i64 %45, %46
  br i1 %47, label %57, label %48

48:                                               ; preds = %36
  %49 = load i64, ptr %18, align 8, !tbaa !10
  %50 = load i64, ptr %15, align 8, !tbaa !10
  %51 = load i32, ptr %21, align 4, !tbaa !12
  %52 = mul i32 2, %51
  %53 = zext i32 %52 to i64
  %54 = add i64 %50, %53
  %55 = add i64 %54, 2
  %56 = icmp ult i64 %49, %55
  br i1 %56, label %57, label %58

57:                                               ; preds = %48, %36
  store i32 -16512, ptr %9, align 4
  store i32 1, ptr %22, align 4
  br label %161

58:                                               ; preds = %48
  %59 = load ptr, ptr %17, align 8, !tbaa !8
  %60 = load i64, ptr %18, align 8, !tbaa !10
  call void @llvm.memset.p0.i64(ptr align 1 %59, i8 0, i64 %60, i1 false)
  %61 = load ptr, ptr %20, align 8, !tbaa !8
  %62 = getelementptr inbounds nuw i8, ptr %61, i32 1
  store ptr %62, ptr %20, align 8, !tbaa !8
  store i8 0, ptr %61, align 1, !tbaa !33
  %63 = load ptr, ptr %11, align 8, !tbaa !26
  %64 = load ptr, ptr %12, align 8, !tbaa !26
  %65 = load ptr, ptr %20, align 8, !tbaa !8
  %66 = load i32, ptr %21, align 4, !tbaa !12
  %67 = zext i32 %66 to i64
  %68 = call i32 %63(ptr noundef %64, ptr noundef %65, i64 noundef %67)
  store i32 %68, ptr %19, align 4, !tbaa !12
  %69 = icmp ne i32 %68, 0
  br i1 %69, label %70, label %73

70:                                               ; preds = %58
  %71 = load i32, ptr %19, align 4, !tbaa !12
  %72 = call i32 @mbedtls_error_add(i32 noundef -17536, i32 noundef %71, ptr noundef @.str, i32 noundef 1796)
  store i32 %72, ptr %9, align 4
  store i32 1, ptr %22, align 4
  br label %161

73:                                               ; preds = %58
  %74 = load i32, ptr %21, align 4, !tbaa !12
  %75 = load ptr, ptr %20, align 8, !tbaa !8
  %76 = zext i32 %74 to i64
  %77 = getelementptr inbounds nuw i8, ptr %75, i64 %76
  store ptr %77, ptr %20, align 8, !tbaa !8
  %78 = load ptr, ptr %10, align 8, !tbaa !3
  %79 = getelementptr inbounds nuw %struct.mbedtls_rsa_context, ptr %78, i32 0, i32 16
  %80 = load i32, ptr %79, align 4, !tbaa !25
  %81 = load ptr, ptr %13, align 8, !tbaa !8
  %82 = load i64, ptr %14, align 8, !tbaa !10
  %83 = load ptr, ptr %20, align 8, !tbaa !8
  %84 = call i32 @compute_hash(i32 noundef %80, ptr noundef %81, i64 noundef %82, ptr noundef %83)
  store i32 %84, ptr %19, align 4, !tbaa !12
  %85 = load i32, ptr %19, align 4, !tbaa !12
  %86 = icmp ne i32 %85, 0
  br i1 %86, label %87, label %89

87:                                               ; preds = %73
  %88 = load i32, ptr %19, align 4, !tbaa !12
  store i32 %88, ptr %9, align 4
  store i32 1, ptr %22, align 4
  br label %161

89:                                               ; preds = %73
  %90 = load i32, ptr %21, align 4, !tbaa !12
  %91 = load ptr, ptr %20, align 8, !tbaa !8
  %92 = zext i32 %90 to i64
  %93 = getelementptr inbounds nuw i8, ptr %91, i64 %92
  store ptr %93, ptr %20, align 8, !tbaa !8
  %94 = load i64, ptr %18, align 8, !tbaa !10
  %95 = load i32, ptr %21, align 4, !tbaa !12
  %96 = mul i32 2, %95
  %97 = zext i32 %96 to i64
  %98 = sub i64 %94, %97
  %99 = sub i64 %98, 2
  %100 = load i64, ptr %15, align 8, !tbaa !10
  %101 = sub i64 %99, %100
  %102 = load ptr, ptr %20, align 8, !tbaa !8
  %103 = getelementptr inbounds nuw i8, ptr %102, i64 %101
  store ptr %103, ptr %20, align 8, !tbaa !8
  %104 = load ptr, ptr %20, align 8, !tbaa !8
  %105 = getelementptr inbounds nuw i8, ptr %104, i32 1
  store ptr %105, ptr %20, align 8, !tbaa !8
  store i8 1, ptr %104, align 1, !tbaa !33
  %106 = load i64, ptr %15, align 8, !tbaa !10
  %107 = icmp ne i64 %106, 0
  br i1 %107, label %108, label %112

108:                                              ; preds = %89
  %109 = load ptr, ptr %20, align 8, !tbaa !8
  %110 = load ptr, ptr %16, align 8, !tbaa !8
  %111 = load i64, ptr %15, align 8, !tbaa !10
  call void @llvm.memcpy.p0.p0.i64(ptr align 1 %109, ptr align 1 %110, i64 %111, i1 false)
  br label %112

112:                                              ; preds = %108, %89
  %113 = load ptr, ptr %17, align 8, !tbaa !8
  %114 = load i32, ptr %21, align 4, !tbaa !12
  %115 = zext i32 %114 to i64
  %116 = getelementptr inbounds nuw i8, ptr %113, i64 %115
  %117 = getelementptr inbounds i8, ptr %116, i64 1
  %118 = load i64, ptr %18, align 8, !tbaa !10
  %119 = load i32, ptr %21, align 4, !tbaa !12
  %120 = zext i32 %119 to i64
  %121 = sub i64 %118, %120
  %122 = sub i64 %121, 1
  %123 = load ptr, ptr %17, align 8, !tbaa !8
  %124 = getelementptr inbounds i8, ptr %123, i64 1
  %125 = load i32, ptr %21, align 4, !tbaa !12
  %126 = zext i32 %125 to i64
  %127 = load ptr, ptr %10, align 8, !tbaa !3
  %128 = getelementptr inbounds nuw %struct.mbedtls_rsa_context, ptr %127, i32 0, i32 16
  %129 = load i32, ptr %128, align 4, !tbaa !25
  %130 = call i32 @mgf_mask(ptr noundef %117, i64 noundef %122, ptr noundef %124, i64 noundef %126, i32 noundef %129)
  store i32 %130, ptr %19, align 4, !tbaa !12
  %131 = icmp ne i32 %130, 0
  br i1 %131, label %132, label %134

132:                                              ; preds = %112
  %133 = load i32, ptr %19, align 4, !tbaa !12
  store i32 %133, ptr %9, align 4
  store i32 1, ptr %22, align 4
  br label %161

134:                                              ; preds = %112
  %135 = load ptr, ptr %17, align 8, !tbaa !8
  %136 = getelementptr inbounds i8, ptr %135, i64 1
  %137 = load i32, ptr %21, align 4, !tbaa !12
  %138 = zext i32 %137 to i64
  %139 = load ptr, ptr %17, align 8, !tbaa !8
  %140 = load i32, ptr %21, align 4, !tbaa !12
  %141 = zext i32 %140 to i64
  %142 = getelementptr inbounds nuw i8, ptr %139, i64 %141
  %143 = getelementptr inbounds i8, ptr %142, i64 1
  %144 = load i64, ptr %18, align 8, !tbaa !10
  %145 = load i32, ptr %21, align 4, !tbaa !12
  %146 = zext i32 %145 to i64
  %147 = sub i64 %144, %146
  %148 = sub i64 %147, 1
  %149 = load ptr, ptr %10, align 8, !tbaa !3
  %150 = getelementptr inbounds nuw %struct.mbedtls_rsa_context, ptr %149, i32 0, i32 16
  %151 = load i32, ptr %150, align 4, !tbaa !25
  %152 = call i32 @mgf_mask(ptr noundef %136, i64 noundef %138, ptr noundef %143, i64 noundef %148, i32 noundef %151)
  store i32 %152, ptr %19, align 4, !tbaa !12
  %153 = icmp ne i32 %152, 0
  br i1 %153, label %154, label %156

154:                                              ; preds = %134
  %155 = load i32, ptr %19, align 4, !tbaa !12
  store i32 %155, ptr %9, align 4
  store i32 1, ptr %22, align 4
  br label %161

156:                                              ; preds = %134
  %157 = load ptr, ptr %10, align 8, !tbaa !3
  %158 = load ptr, ptr %17, align 8, !tbaa !8
  %159 = load ptr, ptr %17, align 8, !tbaa !8
  %160 = call i32 @mbedtls_rsa_public(ptr noundef %157, ptr noundef %158, ptr noundef %159)
  store i32 %160, ptr %9, align 4
  store i32 1, ptr %22, align 4
  br label %161

161:                                              ; preds = %156, %154, %132, %87, %70, %57, %35, %26
  call void @llvm.lifetime.end.p0(i64 4, ptr %21) #9
  call void @llvm.lifetime.end.p0(i64 8, ptr %20) #9
  call void @llvm.lifetime.end.p0(i64 4, ptr %19) #9
  call void @llvm.lifetime.end.p0(i64 8, ptr %18) #9
  %162 = load i32, ptr %9, align 4
  ret i32 %162
}