; Function Attrs: nounwind uwtable
define hidden i32 @mbedtls_rsa_rsaes_oaep_encrypt(ptr noundef %0, ptr noundef readonly %1, ptr noundef %2, ptr noundef %3, i64 noundef %4, i64 noundef %5, ptr noundef readonly captures(none) %6, ptr noundef %7) local_unnamed_addr #0 {
  %9 = icmp eq ptr %1, null
  br i1 %9, label %compute_hash.exit.thread, label %10

10:                                               ; preds = %8
  %11 = getelementptr inbounds nuw i8, ptr %0, i64 228
  %12 = load i32, ptr %11, align 4, !tbaa !18
  %13 = tail call ptr @mbedtls_md_info_from_type(i32 noundef %12) #14
  %14 = tail call zeroext i8 @mbedtls_md_get_size(ptr noundef %13) #14
  %15 = icmp eq i8 %14, 0
  br i1 %15, label %compute_hash.exit.thread, label %16

16:                                               ; preds = %10
  %17 = zext i8 %14 to i64
  %18 = getelementptr inbounds nuw i8, ptr %0, i64 8
  %19 = load i64, ptr %18, align 8, !tbaa !12
  %20 = shl nuw nsw i64 %17, 1
  %21 = add i64 %20, %5
  %22 = add i64 %21, 2
  %23 = icmp ult i64 %22, %5
  %24 = icmp ult i64 %19, %22
  %or.cond = select i1 %23, i1 true, i1 %24
  br i1 %or.cond, label %compute_hash.exit.thread, label %25

25:                                               ; preds = %16
  tail call void @llvm.memset.p0.i64(ptr align 1 %7, i8 0, i64 %19, i1 false)
  %26 = getelementptr inbounds nuw i8, ptr %7, i64 1
  store i8 0, ptr %7, align 1, !tbaa !23
  %27 = tail call i32 %1(ptr noundef %2, ptr noundef nonnull %26, i64 noundef %17) #14
  %.not = icmp eq i32 %27, 0
  br i1 %.not, label %30, label %28

28:                                               ; preds = %25
  %29 = add nsw i32 %27, -17536
  br label %compute_hash.exit.thread

30:                                               ; preds = %25
  %31 = getelementptr inbounds nuw i8, ptr %26, i64 %17
  %32 = load i32, ptr %11, align 4, !tbaa !18
  %33 = tail call ptr @mbedtls_md_info_from_type(i32 noundef %32) #14
  %34 = icmp eq ptr %33, null
  br i1 %34, label %compute_hash.exit.thread, label %compute_hash.exit

compute_hash.exit:                                ; preds = %30
  %35 = tail call i32 @mbedtls_md(ptr noundef nonnull %33, ptr noundef %3, i64 noundef %4, ptr noundef nonnull %31) #14
  %.not66 = icmp eq i32 %35, 0
  br i1 %.not66, label %36, label %compute_hash.exit.thread

36:                                               ; preds = %compute_hash.exit
  %37 = getelementptr inbounds nuw i8, ptr %31, i64 %17
  %reass.sub = sub i64 %19, %21
  %38 = getelementptr i8, ptr %37, i64 %reass.sub
  %39 = getelementptr i8, ptr %38, i64 -2
  store i8 1, ptr %39, align 1, !tbaa !23
  %.not67 = icmp eq i64 %5, 0
  br i1 %.not67, label %42, label %40

40:                                               ; preds = %36
  %41 = getelementptr i8, ptr %38, i64 -1
  tail call void @llvm.memcpy.p0.p0.i64(ptr nonnull align 1 %41, ptr align 1 %6, i64 %5, i1 false)
  br label %42

42:                                               ; preds = %40, %36
  %43 = getelementptr inbounds nuw i8, ptr %7, i64 %17
  %44 = getelementptr inbounds nuw i8, ptr %43, i64 1
  %45 = xor i64 %17, -1
  %46 = add i64 %19, %45
  %47 = load i32, ptr %11, align 4, !tbaa !18
  %48 = tail call fastcc i32 @mgf_mask(ptr noundef nonnull %44, i64 noundef %46, ptr noundef nonnull %26, i64 noundef %17, i32 noundef %47)
  %.not68 = icmp eq i32 %48, 0
  br i1 %.not68, label %49, label %compute_hash.exit.thread

49:                                               ; preds = %42
  %50 = load i32, ptr %11, align 4, !tbaa !18
  %51 = tail call fastcc i32 @mgf_mask(ptr noundef nonnull %26, i64 noundef %17, ptr noundef nonnull %44, i64 noundef %46, i32 noundef %50)
  %.not69 = icmp eq i32 %51, 0
  br i1 %.not69, label %52, label %compute_hash.exit.thread

52:                                               ; preds = %49
  %53 = tail call i32 @mbedtls_rsa_public(ptr noundef nonnull %0, ptr noundef nonnull %7, ptr noundef nonnull %7)
  br label %compute_hash.exit.thread

compute_hash.exit.thread:                         ; preds = %30, %49, %42, %compute_hash.exit, %16, %10, %8, %52, %28
  %.0 = phi i32 [ %29, %28 ], [ %53, %52 ], [ -16512, %8 ], [ -16512, %10 ], [ -16512, %16 ], [ %35, %compute_hash.exit ], [ %48, %42 ], [ %51, %49 ], [ -16512, %30 ]
  ret i32 %.0
}